; Function Attrs: nounwind sspstrong allocsize(1,2) uwtable
define dso_local noalias nonnull ptr @ruby_sized_xrealloc2(ptr noundef %0, i64 noundef %1, i64 noundef %2, i64 noundef %3) local_unnamed_addr #34 {
  %5 = load i64, ptr @rb_eArgError, align 8, !tbaa !93
  %6 = tail call { i64, i1 } @llvm.umul.with.overflow.i64(i64 %1, i64 %2)
  %7 = extractvalue { i64, i1 } %6, 1
  br i1 %7, label %8, label %ruby_sized_xrealloc2_body.exit, !prof !79

8:                                                ; preds = %4
  %9 = load ptr, ptr @ruby_current_vm_ptr, align 8, !tbaa !62
  %.not.i.i.i.i.i = icmp eq ptr %9, null
  br i1 %.not.i.i.i.i.i, label %rb_during_gc.exit.thread.i.i.i.i, label %rb_during_gc.exit.i.i.i.i

rb_during_gc.exit.i.i.i.i:                        ; preds = %8
  %10 = getelementptr inbounds nuw i8, ptr %9, i64 1296
  %11 = load ptr, ptr %10, align 8, !tbaa !63
  %12 = getelementptr i8, ptr %11, i64 20
  %.val.i.i.i.i.i = load i16, ptr %12, align 4
  %13 = and i16 %.val.i.i.i.i.i, 32
  %.not.i.i.i.i = icmp eq i16 %13, 0
  br i1 %.not.i.i.i.i, label %rb_during_gc.exit.thread.i.i.i.i, label %14

14:                                               ; preds = %rb_during_gc.exit.i.i.i.i
  tail call void @rb_memerror() #62
  unreachable

rb_during_gc.exit.thread.i.i.i.i:                 ; preds = %rb_during_gc.exit.i.i.i.i, %8
  tail call void (i64, ptr, ...) @gc_raise(i64 noundef %5, ptr noundef nonnull @.str.80, i64 noundef %1, i64 noundef %2, i64 noundef -1) #63
  unreachable

ruby_sized_xrealloc2_body.exit:                   ; preds = %4
  %15 = extractvalue { i64, i1 } %6, 0
  %16 = load ptr, ptr @ruby_current_vm_ptr, align 8, !tbaa !62
  %17 = getelementptr inbounds nuw i8, ptr %16, i64 1296
  %18 = load ptr, ptr %17, align 8, !tbaa !63
  %19 = mul i64 %3, %2
  %20 = tail call fastcc noalias noundef ptr @rb_gc_impl_realloc(ptr noundef %18, ptr noundef %0, i64 noundef %15, i64 noundef %19)
  %.not.i = icmp eq ptr %20, null
  br i1 %.not.i, label %21, label %handle_malloc_failure.exit, !prof !79

21:                                               ; preds = %ruby_sized_xrealloc2_body.exit
  tail call fastcc void @ruby_memerror() #63
  unreachable

handle_malloc_failure.exit:                       ; preds = %ruby_sized_xrealloc2_body.exit
  ret ptr %20
}